(dp0
S'influence'
p1
(lp2
cnumpy.core.multiarray
scalar
p3
(cnumpy
dtype
p4
(S'f8'
p5
I0
I1
tp6
Rp7
(I3
S'<'
p8
NNNI-1
I-1
I0
tp9
bS'@\xc2\x9e`\xf4\xcd\xaa\xbf'
p10
tp11
Rp12
ag3
(g7
S'\xc0\xf6?\xc5w\xbc\xa8\xbf'
p13
tp14
Rp15
ag3
(g7
S'\xc0\xf8\xd7v\xa7\x9b\xa4\xbf'
p16
tp17
Rp18
ag3
(g7
S'@G\x16" t\xa2\xbf'
p19
tp20
Rp21
ag3
(g7
S'\xc0\xc5v\xaa\x8c\x17\xa3\xbf'
p22
tp23
Rp24
ag3
(g7
S'\xc0\xf9\x131\x9d[\xa0\xbf'
p25
tp26
Rp27
ag3
(g7
S'\x00\xa4\xf5\xcf\x95\x94\x99\xbf'
p28
tp29
Rp30
ag3
(g7
S'\x00\xb1{\xc4`N\xa1\xbf'
p31
tp32
Rp33
ag3
(g7
S'\x00\x86\x99\x14#\x9a\x98\xbf'
p34
tp35
Rp36
ag3
(g7
S'\xc0\xfe\xae\xa9l\x15\xa6\xbf'
p37
tp38
Rp39
ag3
(g7
S'\x80\x86\xc5zo<\x95\xbf'
p40
tp41
Rp42
ag3
(g7
S'\x80\xed\x88\x9d\x05\xa5\xa1\xbf'
p43
tp44
Rp45
ag3
(g7
S'\x80\xa8C\xa5\x1d\xac\x96\xbf'
p46
tp47
Rp48
ag3
(g7
S'\x00\xc8\xe7:[\xc3\x91\xbf'
p49
tp50
Rp51
ag3
(g7
S'\x003yu\x1c"\x92\xbf'
p52
tp53
Rp54
ag3
(g7
S'\x00\xf4;X\xb3f\x8f\xbf'
p55
tp56
Rp57
ag3
(g7
S'\x004\r\x8c\x8d1\x95\xbf'
p58
tp59
Rp60
ag3
(g7
S'\x80o\xee-\xfb\x1f\x92\xbf'
p61
tp62
Rp63
ag3
(g7
S'\x00\xb6\x01=\xb5\x9c\x86\xbf'
p64
tp65
Rp66
ag3
(g7
S'\x80\x1eMJLu\x90\xbf'
p67
tp68
Rp69
ag3
(g7
S'\x00\x14\xb4\xcd\x96\t\x8b\xbf'
p70
tp71
Rp72
ag3
(g7
S"\x00\x9c\xbc\xc8'\xc8\x8c\xbf"
p73
tp74
Rp75
ag3
(g7
S'\x00\xc0D\xe9\x84(\x92\xbf'
p76
tp77
Rp78
ag3
(g7
S'\x00\xd2\xbf\xbc\xc1;\x82\xbf'
p79
tp80
Rp81
ag3
(g7
S'\x00P\xec\xa8\x1f^\x83\xbf'
p82
tp83
Rp84
ag3
(g7
S'\x00a\xc7W8H\x84\xbf'
p85
tp86
Rp87
ag3
(g7
S'\x00\xc4$\xa9\xad\xa3\x80\xbf'
p88
tp89
Rp90
ag3
(g7
S'\x00\xe6\xa16\x12s\x8d\xbf'
p91
tp92
Rp93
ag3
(g7
S'\x00\x98rZ\x91\xfd\x7f\xbf'
p94
tp95
Rp96
ag3
(g7
S'\x00\xffE\xdaK\x10\x82\xbf'
p97
tp98
Rp99
ag3
(g7
S'\x00\xea\xc7$\xc6\x91r\xbf'
p100
tp101
Rp102
ag3
(g7
S'\x000\x0fXo\x14\x83\xbf'
p103
tp104
Rp105
ag3
(g7
S'\x00v\x1c\x85mJz\xbf'
p106
tp107
Rp108
ag3
(g7
S"\x00\x16}\x0b'\xaev\xbf"
p109
tp110
Rp111
ag3
(g7
S'\x00r\xf0u0\xe7|\xbf'
p112
tp113
Rp114
ag3
(g7
S'\x00\xb0BOh\xbfX\xbf'
p115
tp116
Rp117
ag3
(g7
S'\x00`\xd0\xfe\x99Ni\xbf'
p118
tp119
Rp120
ag3
(g7
S'\x00>\xfeY\xfd\xeap\xbf'
p121
tp122
Rp123
ag3
(g7
S'\x00\xce\xe1\rS"v\xbf'
p124
tp125
Rp126
ag3
(g7
S'\x00>u\xd8;\xf1\x81\xbf'
p127
tp128
Rp129
ag3
(g7
S'\x00\x1cEC~\x92y\xbf'
p130
tp131
Rp132
ag3
(g7
S'\x00(\x01n\x1eG\x81\xbf'
p133
tp134
Rp135
ag3
(g7
S'\x00\x06\x88K\x1ctq\xbf'
p136
tp137
Rp138
ag3
(g7
S'\x00\xa0a\xcc]^w\xbf'
p139
tp140
Rp141
ag3
(g7
S'\x00<\xc3\xe1-\x1a|\xbf'
p142
tp143
Rp144
ag3
(g7
S"\x00\xcc'x\xe5\xb9m\xbf"
p145
tp146
Rp147
ag3
(g7
S'\x00\x80\x9d\x84\xc8w\x82\xbf'
p148
tp149
Rp150
ag3
(g7
S'\x00\xfa\xfc\x1a\xa16t\xbf'
p151
tp152
Rp153
ag3
(g7
S'\x00\xf8i\x9b\xac9d\xbf'
p154
tp155
Rp156
ag3
(g7
S'\x00\x94\x9ee\xfd\x05d\xbf'
p157
tp158
Rp159
ag3
(g7
S'\x00(?\x85\xd3\x07i\xbf'
p160
tp161
Rp162
ag3
(g7
S'\x00\xf4\xd9y\xce\xe9d\xbf'
p163
tp164
Rp165
ag3
(g7
S'\x00T\x92\xe9\x89\x13i\xbf'
p166
tp167
Rp168
ag3
(g7
S'\x00\x84ml\x9c\xe2j\xbf'
p169
tp170
Rp171
ag3
(g7
S'\x00\x18\xc7\x08\x7f\xbed\xbf'
p172
tp173
Rp174
ag3
(g7
S'\x00\xbcf\x82C\xb9d\xbf'
p175
tp176
Rp177
ag3
(g7
S'\x00@\xa2b\x98e;\xbf'
p178
tp179
Rp180
ag3
(g7
S'\x00D\xbbKP\xcfa?'
p181
tp182
Rp183
ag3
(g7
S'\x00DP\x945lp\xbf'
p184
tp185
Rp186
ag3
(g7
S'\x00\x04Dt\x82.b\xbf'
p187
tp188
Rp189
ag3
(g7
S'\x00\xdc\xddY\xa5\x00g\xbf'
p190
tp191
Rp192
ag3
(g7
S'\x00HS\xe2\xd9BY\xbf'
p193
tp194
Rp195
ag3
(g7
S'\x00H\xc2\x1f\xa0\x0eu\xbf'
p196
tp197
Rp198
ag3
(g7
S'\x00\x08\x89m\xf4\x8d[\xbf'
p199
tp200
Rp201
ag3
(g7
S'\x00\xf8z\xaa\x8d1`\xbf'
p202
tp203
Rp204
ag3
(g7
S'\x00p9\rD\x15W\xbf'
p205
tp206
Rp207
ag3
(g7
S'\x004\x1f\x030[\x86\xbf'
p208
tp209
Rp210
ag3
(g7
S'\x00\xa0\x90b\xb2\xaa6?'
p211
tp212
Rp213
ag3
(g7
S'\x00\xc8D|0O`\xbf'
p214
tp215
Rp216
ag3
(g7
S'\x008i\thCU\xbf'
p217
tp218
Rp219
ag3
(g7
S'\x00\xb0\xa4PDLb\xbf'
p220
tp221
Rp222
ag3
(g7
S'\x00\x00\x08\x8d\xda__\xbf'
p223
tp224
Rp225
ag3
(g7
S'\x00\x80P(\xc3\xa6\x1c\xbf'
p226
tp227
Rp228
ag3
(g7
S'\x00P\xcc3\xd2\xc1\\?'
p229
tp230
Rp231
ag3
(g7
S'\x00\xc0\rq\xfe\xa87\xbf'
p232
tp233
Rp234
ag3
(g7
S"\x00\x00<\x07w\xda'\xbf"
p235
tp236
Rp237
ag3
(g7
S'\x00\x9cc+\x98 b?'
p238
tp239
Rp240
ag3
(g7
S'\x00`\x84M\x0exR\xbf'
p241
tp242
Rp243
ag3
(g7
S'\x00\x00\xa2\xea\x08D\x17?'
p244
tp245
Rp246
ag3
(g7
S'\x00\xc0V\x14T\xd2*?'
p247
tp248
Rp249
ag3
(g7
S'\x00\x8csv0?g\xbf'
p250
tp251
Rp252
ag3
(g7
S'\x00\x008\xaf\x07\x8e\xf8>'
p253
tp254
Rp255
ag3
(g7
S'\x00\x00|\xe6\\m+?'
p256
tp257
Rp258
ag3
(g7
S'\x00\x80\x91\xea\x1f.\x15?'
p259
tp260
Rp261
ag3
(g7
S'\x000\x13\x96\xf0}Y?'
p262
tp263
Rp264
ag3
(g7
S'\x00\x00\x15w\xa0\xcf+?'
p265
tp266
Rp267
ag3
(g7
S'\x00`z\xf2\x1b=B\xbf'
p268
tp269
Rp270
ag3
(g7
S'\x00\x00\xf4\x8c\x11\xcd\x13\xbf'
p271
tp272
Rp273
ag3
(g7
S'\x00\x80\x18n\xec{N?'
p274
tp275
Rp276
ag3
(g7
S'\x00@tY\xf8\x96L\xbf'
p277
tp278
Rp279
ag3
(g7
S'\x00\x00\xbaGg\xf64?'
p280
tp281
Rp282
ag3
(g7
S'\x00\xa0r\xedk\x80D?'
p283
tp284
Rp285
ag3
(g7
S'\x00\x90\xf0\xed\x8dbC?'
p286
tp287
Rp288
ag3
(g7
S'\x00\xe0\xe4tnoO?'
p289
tp290
Rp291
ag3
(g7
S'\x00\x00\x0b\x15\xb0\xabP?'
p292
tp293
Rp294
ag3
(g7
S'\x008r\xb3\xd8\xbbU?'
p295
tp296
Rp297
ag3
(g7
S'\x00h\x99\xc1\xaeHP?'
p298
tp299
Rp300
ag3
(g7
S'\x00p"\xe7!\x00`?'
p301
tp302
Rp303
ag3
(g7
S'\x00p\xd1e\x11\x15C?'
p304
tp305
Rp306
ag3
(g7
S'\x00x$-y\xeaZ?'
p307
tp308
Rp309
ag3
(g7
S'\x00\x00`\x98\xf0\t\xf3\xbe'
p310
tp311
Rp312
ag3
(g7
S'\x00p\x8c\x8c\\)P?'
p313
tp314
Rp315
ag3
(g7
S'\x00\x08BZ\xf7/W?'
p316
tp317
Rp318
ag3
(g7
S'\x00P\xad\x99\xc6\xe1T?'
p319
tp320
Rp321
ag3
(g7
S'\x00\xd0\x0c}\xde\xa7S?'
p322
tp323
Rp324
ag3
(g7
S'\x00\x18Wb\xab\xeb]?'
p325
tp326
Rp327
ag3
(g7
S'\x00`P\xcb\xf4\xbeE?'
p328
tp329
Rp330
ag3
(g7
S'\x00 \xbb7\xe7\xf4K?'
p331
tp332
Rp333
ag3
(g7
S'\x00\x08\x83\xe8\\\x0ca?'
p334
tp335
Rp336
ag3
(g7
S'\x00\x88G\xa5d a?'
p337
tp338
Rp339
ag3
(g7
S'\x00\xa0}\r\x02\xcb1?'
p340
tp341
Rp342
ag3
(g7
S'\x00\xf8\r\\y\x08[?'
p343
tp344
Rp345
ag3
(g7
S'\x00\x10g\xbd\xf63d?'
p346
tp347
Rp348
ag3
(g7
S'\x00ts\xce{{d?'
p349
tp350
Rp351
ag3
(g7
S'\x00\xcepi2\xa4p?'
p352
tp353
Rp354
ag3
(g7
S'\x00\xe0\x1a\x95\xcc\xa9w?'
p355
tp356
Rp357
ag3
(g7
S'\x00 \x82\x11Y\x83\\?'
p358
tp359
Rp360
ag3
(g7
S'\x00|Dq\x02\xaal?'
p361
tp362
Rp363
ag3
(g7
S'\x00\x0c\xfaT\x05kh?'
p364
tp365
Rp366
ag3
(g7
S'\x00\xee95,>q?'
p367
tp368
Rp369
ag3
(g7
S'\x00pK$z\xbbp?'
p370
tp371
Rp372
ag3
(g7
S'\x00\nI\xa4\x05]p?'
p373
tp374
Rp375
ag3
(g7
S'\x00\xa0lM\xd4@1?'
p376
tp377
Rp378
ag3
(g7
S'\x00V\x9bJ\x82Dv?'
p379
tp380
Rp381
ag3
(g7
S'\x00\xd8Vm\xd8\x8ct?'
p382
tp383
Rp384
ag3
(g7
S'\x00\x06\xbd@\x9cAv?'
p385
tp386
Rp387
ag3
(g7
S'\x00\x8a\x1d-\x16\xd7v?'
p388
tp389
Rp390
ag3
(g7
S'\x00\xd0Kr&3M\xbf'
p391
tp392
Rp393
ag3
(g7
S'\x00\xdc\xaekr\x10x?'
p394
tp395
Rp396
ag3
(g7
S'\x00\x8a\xab\x8c\x85\xda\x82?'
p397
tp398
Rp399
ag3
(g7
S'\x00\tm0s\xa9\x8e?'
p400
tp401
Rp402
ag3
(g7
S'\x00y\x04\xff!b\x86?'
p403
tp404
Rp405
ag3
(g7
S'\x00\xc3\xafI&V\x87?'
p406
tp407
Rp408
ag3
(g7
S'\x80E\xa9\xbf\x0b\xdc\x92?'
p409
tp410
Rp411
ag3
(g7
S'\x80\xe3\xe5\x8d4\x8a\x93?'
p412
tp413
Rp414
ag3
(g7
S'\x00M\xc2ev\xe5\x92?'
p415
tp416
Rp417
ag3
(g7
S'\x00>4\xa6<\xab\x94?'
p418
tp419
Rp420
ag3
(g7
S'\x00T\x8f\xb3%\x84\x94?'
p421
tp422
Rp423
ag3
(g7
S'\x00\xf3\xe8|4\xa3\xa4?'
p424
tp425
Rp426
ag3
(g7
S'\x00\x8c\xca-~*\x9c?'
p427
tp428
Rp429
ag3
(g7
S'\x80Q\xa4\xe4\xf7\xad\xad\xbf'
p430
tp431
Rp432
ag3
(g7
S'\x00Qm\xec4\xb2\x9e?'
p433
tp434
Rp435
ag3
(g7
S'\xc0\xd2\xf7\n\x02\x91\xac?'
p436
tp437
Rp438
ag3
(g7
S'@\xc3\xce\x02R^\xa0?'
p439
tp440
Rp441
ag3
(g7
S'\xc0[\x7f\x1c\\\xc0\xa3?'
p442
tp443
Rp444
ag3
(g7
S'\x00\x82\xd5\x06\x95\x01\xa4?'
p445
tp446
Rp447
ag3
(g7
S'\x00\x9eAY\x1e\x07\x96?'
p448
tp449
Rp450
ag3
(g7
S'\x00\x1a\xa6\xf3\x7f\x8e\xae?'
p451
tp452
Rp453
ag3
(g7
S'\x0037\xfe\xf6\xe7\xa0?'
p454
tp455
Rp456
ag3
(g7
S'\x00\xb8\xb6\xc5i#}\xbf'
p457
tp458
Rp459
ag3
(g7
S'\x00\xe6\x97\xba\xe2\x1c\x9a?'
p460
tp461
Rp462
asS'APPL'
p463
(lp464
cnumpy.core.multiarray
_reconstruct
p465
(cnumpy
ndarray
p466
(I0
tp467
S'b'
p468
tp469
Rp470
(I1
(I1
tp471
g7
I00
S'\ryF\xd9X\xce\xa6\xbf'
p472
tp473
bag465
(g466
(I0
tp474
g468
tp475
Rp476
(I1
(I1
tp477
g7
I00
S'C\xcbP\xb0\xf8\xe4\xa3\xbf'
p478
tp479
bag465
(g466
(I0
tp480
g468
tp481
Rp482
(I1
(I1
tp483
g7
I00
S'6\xb8\xe2\x89\x90\x87\x9e\xbf'
p484
tp485
bag465
(g466
(I0
tp486
g468
tp487
Rp488
(I1
(I1
tp489
g7
I00
S'\x9d\xf9\xd6XPI\x9e\xbf'
p490
tp491
bag465
(g466
(I0
tp492
g468
tp493
Rp494
(I1
(I1
tp495
g7
I00
S'}b\x94"\xd9\xc8\x9d\xbf'
p496
tp497
bag465
(g466
(I0
tp498
g468
tp499
Rp500
(I1
(I1
tp501
g7
I00
S'\xe2\xd1\x1c\xa4\xb7\xa4\x9d\xbf'
p502
tp503
bag465
(g466
(I0
tp504
g468
tp505
Rp506
(I1
(I1
tp507
g7
I00
S'\xa5F\xce2u7\x9d\xbf'
p508
tp509
bag465
(g466
(I0
tp510
g468
tp511
Rp512
(I1
(I1
tp513
g7
I00
S'\xfe\xfa9\x80\x84\xd9\x9c\xbf'
p514
tp515
bag465
(g466
(I0
tp516
g468
tp517
Rp518
(I1
(I1
tp519
g7
I00
S'\xa6\xd6x\xf4o\xfc\x98\xbf'
p520
tp521
bag465
(g466
(I0
tp522
g468
tp523
Rp524
(I1
(I1
tp525
g7
I00
S'\xb0\xb0\xa3\x94\x01d\x97\xbf'
p526
tp527
bag465
(g466
(I0
tp528
g468
tp529
Rp530
(I1
(I1
tp531
g7
I00
S'l\xee\x83lY{\x95\xbf'
p532
tp533
bag465
(g466
(I0
tp534
g468
tp535
Rp536
(I1
(I1
tp537
g7
I00
S'X\x9a\x03X\xe3v\x92\xbf'
p538
tp539
bag465
(g466
(I0
tp540
g468
tp541
Rp542
(I1
(I1
tp543
g7
I00
S'\x07i\xd9Zf!\x92\xbf'
p544
tp545
bag465
(g466
(I0
tp546
g468
tp547
Rp548
(I1
(I1
tp549
g7
I00
S'97\xc1]\x88\x91\x91\xbf'
p550
tp551
bag465
(g466
(I0
tp552
g468
tp553
Rp554
(I1
(I1
tp555
g7
I00
S'\xf6\xb9\x9d\xb2\xb1\xcf\x90\xbf'
p556
tp557
bag465
(g466
(I0
tp558
g468
tp559
Rp560
(I1
(I1
tp561
g7
I00
S'\x7f\xa6N-\x8d\x8a\x90\xbf'
p562
tp563
bag465
(g466
(I0
tp564
g468
tp565
Rp566
(I1
(I1
tp567
g7
I00
S'\xa4\x13L\xf0\xf6?\x90\xbf'
p568
tp569
bag465
(g466
(I0
tp570
g468
tp571
Rp572
(I1
(I1
tp573
g7
I00
S'U\xbf\xcbP0\xb1\x8e\xbf'
p574
tp575
bag465
(g466
(I0
tp576
g468
tp577
Rp578
(I1
(I1
tp579
g7
I00
S'\xaa\xeb\xf0\x84\x91h\x8e\xbf'
p580
tp581
bag465
(g466
(I0
tp582
g468
tp583
Rp584
(I1
(I1
tp585
g7
I00
S'\xa4IY\xfe\x02\xa1\x8d\xbf'
p586
tp587
bag465
(g466
(I0
tp588
g468
tp589
Rp590
(I1
(I1
tp591
g7
I00
S'\xd6\xbbro\x91B\x8a\xbf'
p592
tp593
bag465
(g466
(I0
tp594
g468
tp595
Rp596
(I1
(I1
tp597
g7
I00
S'F\xc2\xa2\x96\x1e\xb9\x89\xbf'
p598
tp599
bag465
(g466
(I0
tp600
g468
tp601
Rp602
(I1
(I1
tp603
g7
I00
S'k\x1d\x86\xa3L^\x89\xbf'
p604
tp605
bag465
(g466
(I0
tp606
g468
tp607
Rp608
(I1
(I1
tp609
g7
I00
S'\x89\x91-\xcfx\xaa\x88\xbf'
p610
tp611
bag465
(g466
(I0
tp612
g468
tp613
Rp614
(I1
(I1
tp615
g7
I00
S'O\x01\x9e\xc7\x8b\xcc\x83\xbf'
p616
tp617
bag465
(g466
(I0
tp618
g468
tp619
Rp620
(I1
(I1
tp621
g7
I00
S'\x95\x0f\r\xc7\xd0o\x83\xbf'
p622
tp623
bag465
(g466
(I0
tp624
g468
tp625
Rp626
(I1
(I1
tp627
g7
I00
S'\xc3\x01\xce\x07Ei\x82\xbf'
p628
tp629
bag465
(g466
(I0
tp630
g468
tp631
Rp632
(I1
(I1
tp633
g7
I00
S'\xdeZCd*\xa2\x81\xbf'
p634
tp635
bag465
(g466
(I0
tp636
g468
tp637
Rp638
(I1
(I1
tp639
g7
I00
S'\xd6J\x13\x97\x1f<\x80\xbf'
p640
tp641
bag465
(g466
(I0
tp642
g468
tp643
Rp644
(I1
(I1
tp645
g7
I00
S'\x9c-X\xb4cA~\xbf'
p646
tp647
bag465
(g466
(I0
tp648
g468
tp649
Rp650
(I1
(I1
tp651
g7
I00
S'\xb4\xa8\x93\x18\xe0\xe9z\xbf'
p652
tp653
bag465
(g466
(I0
tp654
g468
tp655
Rp656
(I1
(I1
tp657
g7
I00
S'a,\xd8\x8f\x12\xabz\xbf'
p658
tp659
bag465
(g466
(I0
tp660
g468
tp661
Rp662
(I1
(I1
tp663
g7
I00
S'J\xedAi\x11*z\xbf'
p664
tp665
bag465
(g466
(I0
tp666
g468
tp667
Rp668
(I1
(I1
tp669
g7
I00
S'Iqc\x1a\x99}y\xbf'
p670
tp671
bag465
(g466
(I0
tp672
g468
tp673
Rp674
(I1
(I1
tp675
g7
I00
S'VF+\xd2\xcb\x10x\xbf'
p676
tp677
bag465
(g466
(I0
tp678
g468
tp679
Rp680
(I1
(I1
tp681
g7
I00
S'\xb0j\x955\xe5\x92v\xbf'
p682
tp683
bag465
(g466
(I0
tp684
g468
tp685
Rp686
(I1
(I1
tp687
g7
I00
S'\xbf\x82s\x9e\xbf\xf3u\xbf'
p688
tp689
bag465
(g466
(I0
tp690
g468
tp691
Rp692
(I1
(I1
tp693
g7
I00
S'V\x15\xa1\xf9\x83\x84u\xbf'
p694
tp695
bag465
(g466
(I0
tp696
g468
tp697
Rp698
(I1
(I1
tp699
g7
I00
S'\x9d\x1b\x915b\xbat\xbf'
p700
tp701
bag465
(g466
(I0
tp702
g468
tp703
Rp704
(I1
(I1
tp705
g7
I00
S'\xf2v\x15-\xb7\x8cs\xbf'
p706
tp707
bag465
(g466
(I0
tp708
g468
tp709
Rp710
(I1
(I1
tp711
g7
I00
S'dac\x06\x99qs\xbf'
p712
tp713
bag465
(g466
(I0
tp714
g468
tp715
Rp716
(I1
(I1
tp717
g7
I00
S'\xbaqE\xb1\xefis\xbf'
p718
tp719
bag465
(g466
(I0
tp720
g468
tp721
Rp722
(I1
(I1
tp723
g7
I00
S':\x84\x97tT\xf4r\xbf'
p724
tp725
bag465
(g466
(I0
tp726
g468
tp727
Rp728
(I1
(I1
tp729
g7
I00
S'\x83\\\xf3\x9a\x7f&r\xbf'
p730
tp731
bag465
(g466
(I0
tp732
g468
tp733
Rp734
(I1
(I1
tp735
g7
I00
S'[\xb9\x04Z\xb6\xe6q\xbf'
p736
tp737
bag465
(g466
(I0
tp738
g468
tp739
Rp740
(I1
(I1
tp741
g7
I00
S'\xaf\xbd\xb0\x14u\xe0p\xbf'
p742
tp743
bag465
(g466
(I0
tp744
g468
tp745
Rp746
(I1
(I1
tp747
g7
I00
S'\x98\xa5V\xe5\xaa\x00p\xbf'
p748
tp749
bag465
(g466
(I0
tp750
g468
tp751
Rp752
(I1
(I1
tp753
g7
I00
S'\xfe\xaf\x11\x84\xf6\x94o\xbf'
p754
tp755
bag465
(g466
(I0
tp756
g468
tp757
Rp758
(I1
(I1
tp759
g7
I00
S'L\x07\x9b\x05{\xc8k\xbf'
p760
tp761
bag465
(g466
(I0
tp762
g468
tp763
Rp764
(I1
(I1
tp765
g7
I00
S'z\x13T\x12c~k\xbf'
p766
tp767
bag465
(g466
(I0
tp768
g468
tp769
Rp770
(I1
(I1
tp771
g7
I00
S')\x16J\x91\xd1|k\xbf'
p772
tp773
bag465
(g466
(I0
tp774
g468
tp775
Rp776
(I1
(I1
tp777
g7
I00
S'\x7f\xa5\xf1\x91\x8e\x16j\xbf'
p778
tp779
bag465
(g466
(I0
tp780
g468
tp781
Rp782
(I1
(I1
tp783
g7
I00
S'$/\x0f&]Jg\xbf'
p784
tp785
bag465
(g466
(I0
tp786
g468
tp787
Rp788
(I1
(I1
tp789
g7
I00
S'\xb4\x06|\x8e\xeb\x91f\xbf'
p790
tp791
bag465
(g466
(I0
tp792
g468
tp793
Rp794
(I1
(I1
tp795
g7
I00
S'x\xa4\x16\r\x9b8f\xbf'
p796
tp797
bag465
(g466
(I0
tp798
g468
tp799
Rp800
(I1
(I1
tp801
g7
I00
S'\xc7Q(\xfa\x04=c\xbf'
p802
tp803
bag465
(g466
(I0
tp804
g468
tp805
Rp806
(I1
(I1
tp807
g7
I00
S'IcaSX\xdab\xbf'
p808
tp809
bag465
(g466
(I0
tp810
g468
tp811
Rp812
(I1
(I1
tp813
g7
I00
S'\xfe[\xb6k= b\xbf'
p814
tp815
bag465
(g466
(I0
tp816
g468
tp817
Rp818
(I1
(I1
tp819
g7
I00
S'\xc9\t\x8bY\xbb\xbea\xbf'
p820
tp821
bag465
(g466
(I0
tp822
g468
tp823
Rp824
(I1
(I1
tp825
g7
I00
S'\xb6y7g".`\xbf'
p826
tp827
bag465
(g466
(I0
tp828
g468
tp829
Rp830
(I1
(I1
tp831
g7
I00
S'eoL\xb9\\\x83_\xbf'
p832
tp833
bag465
(g466
(I0
tp834
g468
tp835
Rp836
(I1
(I1
tp837
g7
I00
S'\x1f\x1e\x07i\x81(X\xbf'
p838
tp839
bag465
(g466
(I0
tp840
g468
tp841
Rp842
(I1
(I1
tp843
g7
I00
S']\xdaP\xb3Y;W\xbf'
p844
tp845
bag465
(g466
(I0
tp846
g468
tp847
Rp848
(I1
(I1
tp849
g7
I00
S'\x9b\ton%\xfeV\xbf'
p850
tp851
bag465
(g466
(I0
tp852
g468
tp853
Rp854
(I1
(I1
tp855
g7
I00
S'\xa01\x94\xbe/ V\xbf'
p856
tp857
bag465
(g466
(I0
tp858
g468
tp859
Rp860
(I1
(I1
tp861
g7
I00
S'^\xdc\xe1\xe7-\xcdS\xbf'
p862
tp863
bag465
(g466
(I0
tp864
g468
tp865
Rp866
(I1
(I1
tp867
g7
I00
S'4O\x05)\x03\xc1S\xbf'
p868
tp869
bag465
(g466
(I0
tp870
g468
tp871
Rp872
(I1
(I1
tp873
g7
I00
S'\xd7T\xf2*\xda\x83R\xbf'
p874
tp875
bag465
(g466
(I0
tp876
g468
tp877
Rp878
(I1
(I1
tp879
g7
I00
S'\x9bZn\nlQP\xbf'
p880
tp881
bag465
(g466
(I0
tp882
g468
tp883
Rp884
(I1
(I1
tp885
g7
I00
S'F\xaap\xfb!wJ\xbf'
p886
tp887
bag465
(g466
(I0
tp888
g468
tp889
Rp890
(I1
(I1
tp891
g7
I00
S'\xf6Oy\x9d\xe6\xa3A\xbf'
p892
tp893
bag465
(g466
(I0
tp894
g468
tp895
Rp896
(I1
(I1
tp897
g7
I00
S'T\x92V\x19\xe6*?\xbf'
p898
tp899
bag465
(g466
(I0
tp900
g468
tp901
Rp902
(I1
(I1
tp903
g7
I00
S'v\xa7\x8d\x10\x02|8\xbf'
p904
tp905
bag465
(g466
(I0
tp906
g468
tp907
Rp908
(I1
(I1
tp909
g7
I00
S'\xf0\xae\x9d+\xda}7\xbf'
p910
tp911
bag465
(g466
(I0
tp912
g468
tp913
Rp914
(I1
(I1
tp915
g7
I00
S'\xd6\x1c-\x1d\xb8q4\xbf'
p916
tp917
bag465
(g466
(I0
tp918
g468
tp919
Rp920
(I1
(I1
tp921
g7
I00
S'\xc6\xfc\xf65\xd2z3\xbf'
p922
tp923
bag465
(g466
(I0
tp924
g468
tp925
Rp926
(I1
(I1
tp927
g7
I00
S'\xce\xaf\xb5\xc2\x07m#\xbf'
p928
tp929
bag465
(g466
(I0
tp930
g468
tp931
Rp932
(I1
(I1
tp933
g7
I00
S'^-\x88\x99\xd2\x83\x13?'
p934
tp935
bag465
(g466
(I0
tp936
g468
tp937
Rp938
(I1
(I1
tp939
g7
I00
S'\xf1~\xa4\xc6J\xe9\x13?'
p940
tp941
bag465
(g466
(I0
tp942
g468
tp943
Rp944
(I1
(I1
tp945
g7
I00
S'x\xfb5\xa5@\xbb#?'
p946
tp947
bag465
(g466
(I0
tp948
g468
tp949
Rp950
(I1
(I1
tp951
g7
I00
S'\xf8\x8d\xe4\x94[\x13%?'
p952
tp953
bag465
(g466
(I0
tp954
g468
tp955
Rp956
(I1
(I1
tp957
g7
I00
S'\x83\x90L\xe6J\x94%?'
p958
tp959
bag465
(g466
(I0
tp960
g468
tp961
Rp962
(I1
(I1
tp963
g7
I00
S'\xedW\xb9\xf5\xc5\xf2)?'
p964
tp965
bag465
(g466
(I0
tp966
g468
tp967
Rp968
(I1
(I1
tp969
g7
I00
S'\x12uB&\x04\x18+?'
p970
tp971
bag465
(g466
(I0
tp972
g468
tp973
Rp974
(I1
(I1
tp975
g7
I00
S'\xce%.u\x12d2?'
p976
tp977
bag465
(g466
(I0
tp978
g468
tp979
Rp980
(I1
(I1
tp981
g7
I00
S'!\x00\xa4\x11\x95y2?'
p982
tp983
bag465
(g466
(I0
tp984
g468
tp985
Rp986
(I1
(I1
tp987
g7
I00
S'$8\xe4j\xd9\xcc2?'
p988
tp989
bag465
(g466
(I0
tp990
g468
tp991
Rp992
(I1
(I1
tp993
g7
I00
S'\x96&\xc4Z\xce\x8f6?'
p994
tp995
bag465
(g466
(I0
tp996
g468
tp997
Rp998
(I1
(I1
tp999
g7
I00
S'O\xa31\xd6\xff\xb26?'
p1000
tp1001
bag465
(g466
(I0
tp1002
g468
tp1003
Rp1004
(I1
(I1
tp1005
g7
I00
S'\x98\xbcv\x04\xae\xeb8?'
p1006
tp1007
bag465
(g466
(I0
tp1008
g468
tp1009
Rp1010
(I1
(I1
tp1011
g7
I00
S'2\x9d\xcf\xf6\x84x9?'
p1012
tp1013
bag465
(g466
(I0
tp1014
g468
tp1015
Rp1016
(I1
(I1
tp1017
g7
I00
S'6\x06\xe4Ji\x1a:?'
p1018
tp1019
bag465
(g466
(I0
tp1020
g468
tp1021
Rp1022
(I1
(I1
tp1023
g7
I00
S'\xb2\xac\xa4\x10A\x1e:?'
p1024
tp1025
bag465
(g466
(I0
tp1026
g468
tp1027
Rp1028
(I1
(I1
tp1029
g7
I00
S'|\xe5\x0c3\x9d\xa5E?'
p1030
tp1031
bag465
(g466
(I0
tp1032
g468
tp1033
Rp1034
(I1
(I1
tp1035
g7
I00
S'`6Y~5\x13I?'
p1036
tp1037
bag465
(g466
(I0
tp1038
g468
tp1039
Rp1040
(I1
(I1
tp1041
g7
I00
S'\xed\\\n\xe9\xca\x8cJ?'
p1042
tp1043
bag465
(g466
(I0
tp1044
g468
tp1045
Rp1046
(I1
(I1
tp1047
g7
I00
S'\x11=Eh\xc8AK?'
p1048
tp1049
bag465
(g466
(I0
tp1050
g468
tp1051
Rp1052
(I1
(I1
tp1053
g7
I00
S'\xd1\xd8r\x01\xe9LO?'
p1054
tp1055
bag465
(g466
(I0
tp1056
g468
tp1057
Rp1058
(I1
(I1
tp1059
g7
I00
S'\xd0>\xa2\xbd\xd1\x8fO?'
p1060
tp1061
bag465
(g466
(I0
tp1062
g468
tp1063
Rp1064
(I1
(I1
tp1065
g7
I00
S'$7\xe3-\xc0IP?'
p1066
tp1067
bag465
(g466
(I0
tp1068
g468
tp1069
Rp1070
(I1
(I1
tp1071
g7
I00
S'-S\x00\xcd\xd8\xd8P?'
p1072
tp1073
bag465
(g466
(I0
tp1074
g468
tp1075
Rp1076
(I1
(I1
tp1077
g7
I00
S'\xab\x0f\xdd\x13\xa7\xa1Q?'
p1078
tp1079
bag465
(g466
(I0
tp1080
g468
tp1081
Rp1082
(I1
(I1
tp1083
g7
I00
S'yx>\x14\r\x8cR?'
p1084
tp1085
bag465
(g466
(I0
tp1086
g468
tp1087
Rp1088
(I1
(I1
tp1089
g7
I00
S'\xdfM\xa0\xe5\x00\x8fS?'
p1090
tp1091
bag465
(g466
(I0
tp1092
g468
tp1093
Rp1094
(I1
(I1
tp1095
g7
I00
S'\x00|\xc8A\xe5\xd6S?'
p1096
tp1097
bag465
(g466
(I0
tp1098
g468
tp1099
Rp1100
(I1
(I1
tp1101
g7
I00
S'\x9c\xa9\xde;s\xe2S?'
p1102
tp1103
bag465
(g466
(I0
tp1104
g468
tp1105
Rp1106
(I1
(I1
tp1107
g7
I00
S'\xd5Z\xa9C\xb6\x8dT?'
p1108
tp1109
bag465
(g466
(I0
tp1110
g468
tp1111
Rp1112
(I1
(I1
tp1113
g7
I00
S'\xb7X\xa1\x1d\x9f\xedT?'
p1114
tp1115
bag465
(g466
(I0
tp1116
g468
tp1117
Rp1118
(I1
(I1
tp1119
g7
I00
S'n\xe3_\xcd\x13bX?'
p1120
tp1121
bag465
(g466
(I0
tp1122
g468
tp1123
Rp1124
(I1
(I1
tp1125
g7
I00
S'3Q\x81\xb4\xc9\xccX?'
p1126
tp1127
bag465
(g466
(I0
tp1128
g468
tp1129
Rp1130
(I1
(I1
tp1131
g7
I00
S'qe\x98\xf9\n\x16Y?'
p1132
tp1133
bag465
(g466
(I0
tp1134
g468
tp1135
Rp1136
(I1
(I1
tp1137
g7
I00
S'\xc3\x9b\xa0\x04\xa9\xe9_?'
p1138
tp1139
bag465
(g466
(I0
tp1140
g468
tp1141
Rp1142
(I1
(I1
tp1143
g7
I00
S'\x90VH\x0f\xb0\ra?'
p1144
tp1145
bag465
(g466
(I0
tp1146
g468
tp1147
Rp1148
(I1
(I1
tp1149
g7
I00
S'\xaa\x82\xad\x0ep\xc1a?'
p1150
tp1151
bag465
(g466
(I0
tp1152
g468
tp1153
Rp1154
(I1
(I1
tp1155
g7
I00
S'*\r\xe2\xcf\x9d\xedc?'
p1156
tp1157
bag465
(g466
(I0
tp1158
g468
tp1159
Rp1160
(I1
(I1
tp1161
g7
I00
S'\xbd\xfb\xf6*O\xe8h?'
p1162
tp1163
bag465
(g466
(I0
tp1164
g468
tp1165
Rp1166
(I1
(I1
tp1167
g7
I00
S'\x08(\x1dv\x87Ui?'
p1168
tp1169
bag465
(g466
(I0
tp1170
g468
tp1171
Rp1172
(I1
(I1
tp1173
g7
I00
S'E\xe9\xa4\x17+\xc5i?'
p1174
tp1175
bag465
(g466
(I0
tp1176
g468
tp1177
Rp1178
(I1
(I1
tp1179
g7
I00
S'\x8a\xdf\xa1\xcd\xe2Fm?'
p1180
tp1181
bag465
(g466
(I0
tp1182
g468
tp1183
Rp1184
(I1
(I1
tp1185
g7
I00
S'\xb2\xa6p \x0f)p?'
p1186
tp1187
bag465
(g466
(I0
tp1188
g468
tp1189
Rp1190
(I1
(I1
tp1191
g7
I00
S'\xc9e\xfc\x19\x12Qq?'
p1192
tp1193
bag465
(g466
(I0
tp1194
g468
tp1195
Rp1196
(I1
(I1
tp1197
g7
I00
S'|r\xb8?\xbbbq?'
p1198
tp1199
bag465
(g466
(I0
tp1200
g468
tp1201
Rp1202
(I1
(I1
tp1203
g7
I00
S'j\xbf\x87\x11\x94\xfeq?'
p1204
tp1205
bag465
(g466
(I0
tp1206
g468
tp1207
Rp1208
(I1
(I1
tp1209
g7
I00
S'9bd\x16\xcf s?'
p1210
tp1211
bag465
(g466
(I0
tp1212
g468
tp1213
Rp1214
(I1
(I1
tp1215
g7
I00
S'C \xdf"\x9e~s?'
p1216
tp1217
bag465
(g466
(I0
tp1218
g468
tp1219
Rp1220
(I1
(I1
tp1221
g7
I00
S'\xc0\xf4\xc1\xfe\xb3\xf8s?'
p1222
tp1223
bag465
(g466
(I0
tp1224
g468
tp1225
Rp1226
(I1
(I1
tp1227
g7
I00
S'\x8c\xb3\x07\xe1\xcc\xa5v?'
p1228
tp1229
bag465
(g466
(I0
tp1230
g468
tp1231
Rp1232
(I1
(I1
tp1233
g7
I00
S'\xdd\xd4C\x1f\xba@w?'
p1234
tp1235
bag465
(g466
(I0
tp1236
g468
tp1237
Rp1238
(I1
(I1
tp1239
g7
I00
S'}\xa6=/\x92\xf9y?'
p1240
tp1241
bag465
(g466
(I0
tp1242
g468
tp1243
Rp1244
(I1
(I1
tp1245
g7
I00
S'1\xcb\x97V\xc6s{?'
p1246
tp1247
bag465
(g466
(I0
tp1248
g468
tp1249
Rp1250
(I1
(I1
tp1251
g7
I00
S'RC\xd1\xbfV\xb3\x86?'
p1252
tp1253
bag465
(g466
(I0
tp1254
g468
tp1255
Rp1256
(I1
(I1
tp1257
g7
I00
S'\xb4\xc1\xd7\x9b\xa2\x8e\x88?'
p1258
tp1259
bag465
(g466
(I0
tp1260
g468
tp1261
Rp1262
(I1
(I1
tp1263
g7
I00
S'\x10\xb6\xf1oHh\x8a?'
p1264
tp1265
bag465
(g466
(I0
tp1266
g468
tp1267
Rp1268
(I1
(I1
tp1269
g7
I00
S'\x86Z\x82!\xbb\xe7\x8d?'
p1270
tp1271
bag465
(g466
(I0
tp1272
g468
tp1273
Rp1274
(I1
(I1
tp1275
g7
I00
S'\xefi\x1f]\xe0\xaf\x90?'
p1276
tp1277
bag465
(g466
(I0
tp1278
g468
tp1279
Rp1280
(I1
(I1
tp1281
g7
I00
S'{\x83\x8c\xf6o\xea\x90?'
p1282
tp1283
bag465
(g466
(I0
tp1284
g468
tp1285
Rp1286
(I1
(I1
tp1287
g7
I00
S'\xd55\x1c+\xb3\xb3\x92?'
p1288
tp1289
bag465
(g466
(I0
tp1290
g468
tp1291
Rp1292
(I1
(I1
tp1293
g7
I00
S']\xbcn=\x9a\xd6\x92?'
p1294
tp1295
bag465
(g466
(I0
tp1296
g468
tp1297
Rp1298
(I1
(I1
tp1299
g7
I00
S'\x8b\x10Y\xe0\xda\x8d\x98?'
p1300
tp1301
bag465
(g466
(I0
tp1302
g468
tp1303
Rp1304
(I1
(I1
tp1305
g7
I00
S'V\xcf\xee\xda$H\x9b?'
p1306
tp1307
bag465
(g466
(I0
tp1308
g468
tp1309
Rp1310
(I1
(I1
tp1311
g7
I00
S'2\x1a1\xf5\xa5~\x9b?'
p1312
tp1313
bag465
(g466
(I0
tp1314
g468
tp1315
Rp1316
(I1
(I1
tp1317
g7
I00
S'A[\xbd\xd3\xc9:\x9d?'
p1318
tp1319
bag465
(g466
(I0
tp1320
g468
tp1321
Rp1322
(I1
(I1
tp1323
g7
I00
S'a\x00\xf85\xd6\xdb\x9f?'
p1324
tp1325
bag465
(g466
(I0
tp1326
g468
tp1327
Rp1328
(I1
(I1
tp1329
g7
I00
S'\x92\x8c\xf6\x1e\xa5}\xa0?'
p1330
tp1331
bag465
(g466
(I0
tp1332
g468
tp1333
Rp1334
(I1
(I1
tp1335
g7
I00
S'\x7f\xd9\x9c\xb8\xa3\x9b\xa1?'
p1336
tp1337
bag465
(g466
(I0
tp1338
g468
tp1339
Rp1340
(I1
(I1
tp1341
g7
I00
S'\xf0\xfa\xcc\x19\xda\xf5\xa5?'
p1342
tp1343
bag465
(g466
(I0
tp1344
g468
tp1345
Rp1346
(I1
(I1
tp1347
g7
I00
S'\x17\xaft\xc8)\xf1\xa7?'
p1348
tp1349
bag465
(g466
(I0
tp1350
g468
tp1351
Rp1352
(I1
(I1
tp1353
g7
I00
S'y\rR=\xa5\x84\xa8?'
p1354
tp1355
bag465
(g466
(I0
tp1356
g468
tp1357
Rp1358
(I1
(I1
tp1359
g7
I00
S'T\xfd\x07\x04k\xe9\xa8?'
p1360
tp1361
bag465
(g466
(I0
tp1362
g468
tp1363
Rp1364
(I1
(I1
tp1365
g7
I00
S'\xbd\xbc\xbe\xba\xdb\xf0\xa9?'
p1366
tp1367
bag465
(g466
(I0
tp1368
g468
tp1369
Rp1370
(I1
(I1
tp1371
g7
I00
S'\xfa\x80\xc46g\xb4\xaa?'
p1372
tp1373
basS'actual'
p1374
(lp1375
g3
(g4
(S'f4'
p1376
I0
I1
tp1377
Rp1378
(I3
S'<'
p1379
NNNI-1
I-1
I0
tp1380
bS'\xc0mu\xbd'
p1381
tp1382
Rp1383
ag3
(g1378
S'\xc0TS\xbd'
p1384
tp1385
Rp1386
ag3
(g1378
S'@08\xbd'
p1387
tp1388
Rp1389
ag3
(g1378
S'\xc0\xf33\xbd'
p1390
tp1391
Rp1392
ag3
(g1378
S'\x008Z\xbd'
p1393
tp1394
Rp1395
ag3
(g1378
S'@_\x1b\xbd'
p1396
tp1397
Rp1398
ag3
(g1378
S'@;%\xbd'
p1399
tp1400
Rp1401
ag3
(g1378
S'\xc0\xa3(\xbd'
p1402
tp1403
Rp1404
ag3
(g1378
S'\x00\x0c\x04\xbd'
p1405
tp1406
Rp1407
ag3
(g1378
S'\x00\xe6\x0b\xbd'
p1408
tp1409
Rp1410
ag3
(g1378
S'\x00\x94\x03\xbd'
p1411
tp1412
Rp1413
ag3
(g1378
S'\x80?\xb7\xbc'
p1414
tp1415
Rp1416
ag3
(g1378
S'\xc0\xff\x02\xbd'
p1417
tp1418
Rp1419
ag3
(g1378
S'\x80\xa5\xc3\xbc'
p1420
tp1421
Rp1422
ag3
(g1378
S'\x80\xc1\xb9\xbc'
p1423
tp1424
Rp1425
ag3
(g1378
S'\x80\x18\xbc\xbc'
p1426
tp1427
Rp1428
ag3
(g1378
S'\x00 \xc2\xbc'
p1429
tp1430
Rp1431
ag3
(g1378
S'\x802\xbf\xbc'
p1432
tp1433
Rp1434
ag3
(g1378
S'\x00S\x9f\xbc'
p1435
tp1436
Rp1437
ag3
(g1378
S'\x809\xb8\xbc'
p1438
tp1439
Rp1440
ag3
(g1378
S'\x00\x82\xa2\xbc'
p1441
tp1442
Rp1443
ag3
(g1378
S'\x00\xe0\xa7\xbc'
p1444
tp1445
Rp1446
ag3
(g1378
S'\x00;\xab\xbc'
p1447
tp1448
Rp1449
ag3
(g1378
S'\x00n\x85\xbc'
p1450
tp1451
Rp1452
ag3
(g1378
S'\x00\x1a{\xbc'
p1453
tp1454
Rp1455
ag3
(g1378
S'\x00\xa5q\xbc'
p1456
tp1457
Rp1458
ag3
(g1378
S'\x00\xd4\x85\xbc'
p1459
tp1460
Rp1461
ag3
(g1378
S'\x80\x9a\x9f\xbc'
p1462
tp1463
Rp1464
ag3
(g1378
S'\x00E\x83\xbc'
p1465
tp1466
Rp1467
ag3
(g1378
S'\x00As\xbc'
p1468
tp1469
Rp1470
ag3
(g1378
S'\x00\xaaW\xbc'
p1471
tp1472
Rp1473
ag3
(g1378
S'\x00\xba\x84\xbc'
p1474
tp1475
Rp1476
ag3
(g1378
S'\x00gB\xbc'
p1477
tp1478
Rp1479
ag3
(g1378
S'\x00>Q\xbc'
p1480
tp1481
Rp1482
ag3
(g1378
S'\x00\xa4X\xbc'
p1483
tp1484
Rp1485
ag3
(g1378
S'\x00\x0f7\xbc'
p1486
tp1487
Rp1488
ag3
(g1378
S'\x00E+\xbc'
p1489
tp1490
Rp1491
ag3
(g1378
S'\x00\xb7/\xbc'
p1492
tp1493
Rp1494
ag3
(g1378
S'\x00\x8a8\xbc'
p1495
tp1496
Rp1497
ag3
(g1378
S'\x00PR\xbc'
p1498
tp1499
Rp1500
ag3
(g1378
S'\x00\xd3F\xbc'
p1501
tp1502
Rp1503
ag3
(g1378
S'\x00\x1dp\xbc'
p1504
tp1505
Rp1506
ag3
(g1378
S'\x00\xd0@\xbc'
p1507
tp1508
Rp1509
ag3
(g1378
S'\x00\xb88\xbc'
p1510
tp1511
Rp1512
ag3
(g1378
S'\x00\xf1:\xbc'
p1513
tp1514
Rp1515
ag3
(g1378
S'\x00\xc6*\xbc'
p1516
tp1517
Rp1518
ag3
(g1378
S'\x00\t\x1f\xbc'
p1519
tp1520
Rp1521
ag3
(g1378
S'\x00\xcd8\xbc'
p1522
tp1523
Rp1524
ag3
(g1378
S'\x00\xd0\x01\xbc'
p1525
tp1526
Rp1527
ag3
(g1378
S'\x00:\x11\xbc'
p1528
tp1529
Rp1530
ag3
(g1378
S'\x00\x07\x13\xbc'
p1531
tp1532
Rp1533
ag3
(g1378
S'\x00^\x14\xbc'
p1534
tp1535
Rp1536
ag3
(g1378
S'\x00\x10\x0c\xbc'
p1537
tp1538
Rp1539
ag3
(g1378
S'\x00)"\xbc'
p1540
tp1541
Rp1542
ag3
(g1378
S'\x00\xc7\x12\xbc'
p1543
tp1544
Rp1545
ag3
(g1378
S'\x00O\x04\xbc'
p1546
tp1547
Rp1548
ag3
(g1378
S'\x00K\x06\xbc'
p1549
tp1550
Rp1551
ag3
(g1378
S'\x006\xe1\xbb'
p1552
tp1553
Rp1554
ag3
(g1378
S'\x00x<\xbc'
p1555
tp1556
Rp1557
ag3
(g1378
S'\x00\x19\x05\xbc'
p1558
tp1559
Rp1560
ag3
(g1378
S'\x00\x10\x06\xbc'
p1561
tp1562
Rp1563
ag3
(g1378
S'\x00\x8a\xfe\xbb'
p1564
tp1565
Rp1566
ag3
(g1378
S'\x00\x00\x1a\xbc'
p1567
tp1568
Rp1569
ag3
(g1378
S'\x00\xdc\xe9\xbb'
p1570
tp1571
Rp1572
ag3
(g1378
S'\x00L\xfb\xbb'
p1573
tp1574
Rp1575
ag3
(g1378
S'\x00\xfe\x1f\xbc'
p1576
tp1577
Rp1578
ag3
(g1378
S'\x00\xc2\x94\xbb'
p1579
tp1580
Rp1581
ag3
(g1378
S'\x00\x84\xc2\xbb'
p1582
tp1583
Rp1584
ag3
(g1378
S'\x00\x00\xe9\xbb'
p1585
tp1586
Rp1587
ag3
(g1378
S'\x00\xfe\xe2\xbb'
p1588
tp1589
Rp1590
ag3
(g1378
S'\x00\x08\xda\xbb'
p1591
tp1592
Rp1593
ag3
(g1378
S'\x00|\xcf\xbb'
p1594
tp1595
Rp1596
ag3
(g1378
S'\x00|\xa8\xbb'
p1597
tp1598
Rp1599
ag3
(g1378
S'\x00b\x91\xbb'
p1600
tp1601
Rp1602
ag3
(g1378
S'\x00"\xb9\xbb'
p1603
tp1604
Rp1605
ag3
(g1378
S'\x00<\xb6\xbb'
p1606
tp1607
Rp1608
ag3
(g1378
S'\x00\x02\x83\xbb'
p1609
tp1610
Rp1611
ag3
(g1378
S'\x00p\xe0\xbb'
p1612
tp1613
Rp1614
ag3
(g1378
S'\x00\x82\xae\xbb'
p1615
tp1616
Rp1617
ag3
(g1378
S'\x00\xa6\xab\xbb'
p1618
tp1619
Rp1620
ag3
(g1378
S'\x004\x7f\xbb'
p1621
tp1622
Rp1623
ag3
(g1378
S'\x00R\xaf\xbb'
p1624
tp1625
Rp1626
ag3
(g1378
S'\x00\xb6\xa0\xbb'
p1627
tp1628
Rp1629
ag3
(g1378
S'\x00@\xa7\xbb'
p1630
tp1631
Rp1632
ag3
(g1378
S'\x00\xde\x92\xbb'
p1633
tp1634
Rp1635
ag3
(g1378
S'\x00(\xa5\xbb'
p1636
tp1637
Rp1638
ag3
(g1378
S'\x00D\xb1\xbb'
p1639
tp1640
Rp1641
ag3
(g1378
S'\x00~\xae\xbb'
p1642
tp1643
Rp1644
ag3
(g1378
S'\x00\xd4\xa2\xbb'
p1645
tp1646
Rp1647
ag3
(g1378
S'\x00\x96\xa0\xbb'
p1648
tp1649
Rp1650
ag3
(g1378
S'\x00\xa2\xa1\xbb'
p1651
tp1652
Rp1653
ag3
(g1378
S'\x00\xec\x9f\xbb'
p1654
tp1655
Rp1656
ag3
(g1378
S'\x00\xea\xa7\xbb'
p1657
tp1658
Rp1659
ag3
(g1378
S'\x00\xfe\x9d\xbb'
p1660
tp1661
Rp1662
ag3
(g1378
S'\x00f\x8d\xbb'
p1663
tp1664
Rp1665
ag3
(g1378
S'\x00\\\x8a\xbb'
p1666
tp1667
Rp1668
ag3
(g1378
S'\x00\xc4\x8b\xbb'
p1669
tp1670
Rp1671
ag3
(g1378
S'\x00t\x92\xbb'
p1672
tp1673
Rp1674
ag3
(g1378
S'\x00\xaa\xa1\xbb'
p1675
tp1676
Rp1677
ag3
(g1378
S'\x00\x00\x81\xbb'
p1678
tp1679
Rp1680
ag3
(g1378
S'\x00\xcc[\xbb'
p1681
tp1682
Rp1683
ag3
(g1378
S'\x00\xa0\x8d\xbb'
p1684
tp1685
Rp1686
ag3
(g1378
S'\x00b\x81\xbb'
p1687
tp1688
Rp1689
ag3
(g1378
S'\x00\x86\x80\xbb'
p1690
tp1691
Rp1692
ag3
(g1378
S'\x00\xf2\x87\xbb'
p1693
tp1694
Rp1695
ag3
(g1378
S'\x00Hm\xbb'
p1696
tp1697
Rp1698
ag3
(g1378
S'\x00z\x84\xbb'
p1699
tp1700
Rp1701
ag3
(g1378
S'\x00(b\xbb'
p1702
tp1703
Rp1704
ag3
(g1378
S'\x00\xa0o\xbb'
p1705
tp1706
Rp1707
ag3
(g1378
S'\x00\x0ck\xbb'
p1708
tp1709
Rp1710
ag3
(g1378
S'\x00X\xa5\xbb'
p1711
tp1712
Rp1713
ag3
(g1378
S'\x00PN\xbb'
p1714
tp1715
Rp1716
ag3
(g1378
S'\x00 ,\xbb'
p1717
tp1718
Rp1719
ag3
(g1378
S'\x00\xe8a\xbb'
p1720
tp1721
Rp1722
ag3
(g1378
S'\x00\x00D\xba'
p1723
tp1724
Rp1725
ag3
(g1378
S'\x00@\x81\xb9'
p1726
tp1727
Rp1728
ag3
(g1378
S'\x00\xd0 \xbb'
p1729
tp1730
Rp1731
ag3
(g1378
S'\x00\x90\xea\xba'
p1732
tp1733
Rp1734
ag3
(g1378
S'\x00\x88\xd4\xba'
p1735
tp1736
Rp1737
ag3
(g1378
S'\x00\x0c\x0f;'
p1738
tp1739
Rp1740
ag3
(g1378
S'\x00\x00u\xba'
p1741
tp1742
Rp1743
ag3
(g1378
S'\x00@\xf8\xb9'
p1744
tp1745
Rp1746
ag3
(g1378
S'\x00\xc8\xae\xbb'
p1747
tp1748
Rp1749
ag3
(g1378
S'\x00\xa02:'
p1750
tp1751
Rp1752
ag3
(g1378
S'\x00\x00\xfc9'
p1753
tp1754
Rp1755
ag3
(g1378
S'\x00\xb0\x0e:'
p1756
tp1757
Rp1758
ag3
(g1378
S'\x00\xe8\xad:'
p1759
tp1760
Rp1761
ag3
(g1378
S'\x00\x80g\xb9'
p1762
tp1763
Rp1764
ag3
(g1378
S'\x00\x80\xfa:'
p1765
tp1766
Rp1767
ag3
(g1378
S'\x00\n\xdd;'
p1768
tp1769
Rp1770
ag3
(g1378
S'\x00D1<'
p1771
tp1772
Rp1773
ag3
(g1378
S'\x00\xca\x05<'
p1774
tp1775
Rp1776
ag3
(g1378
S'\x00%\x1b<'
p1777
tp1778
Rp1779
ag3
(g1378
S'\x005N<'
p1780
tp1781
Rp1782
ag3
(g1378
S'\x00<\x80<'
p1783
tp1784
Rp1785
ag3
(g1378
S'\x004\x9d<'
p1786
tp1787
Rp1788
ag3
(g1378
S'\x80\xb7\x89<'
p1789
tp1790
Rp1791
ag3
(g1378
S'\x80\xbe\x98<'
p1792
tp1793
Rp1794
ag3
(g1378
S'\x80\xff\xf1<'
p1795
tp1796
Rp1797
ag3
(g1378
S'\x80:\xe0<'
p1798
tp1799
Rp1800
ag3
(g1378
S'\x80e\xd4<'
p1801
tp1802
Rp1803
ag3
(g1378
S'@5\x12='
p1804
tp1805
Rp1806
ag3
(g1378
S'\x00\n\x04='
p1807
tp1808
Rp1809
ag3
(g1378
S'\x001@='
p1810
tp1811
Rp1812
ag3
(g1378
S'@~\x06='
p1813
tp1814
Rp1815
ag3
(g1378
S'\xc0\x0c7='
p1816
tp1817
Rp1818
ag3
(g1378
S'\xc0\xa4n='
p1819
tp1820
Rp1821
ag3
(g1378
S'\xa0\x9c\xa4='
p1822
tp1823
Rp1824
ag3
(g1378
S'@Se='
p1825
tp1826
Rp1827
ag3
(g1378
S'\xc0)w='
p1828
tp1829
Rp1830
ag3
(g1378
S'\x00\xb1\x95='
p1831
tp1832
Rp1833
as.